; Function Attrs: uwtable
define void @_ZTv0_n48_N5arrow2io22CompressedOutputStream5AbortEv(ptr noalias sret(%"class.arrow::Status") align 8 %agg.result, ptr nocapture noundef readonly %this) unnamed_addr #8 align 2 personality ptr @__gxx_personality_v0 {
entry:
  %0 = load ptr, ptr %this, align 8
  %1 = getelementptr inbounds i8, ptr %0, i64 -48
  %2 = load i64, ptr %1, align 8
  %3 = getelementptr inbounds i8, ptr %this, i64 %2
  tail call void @llvm.experimental.noalias.scope.decl(metadata !37)
  %impl_.i = getelementptr inbounds i8, ptr %3, i64 8
  %4 = load ptr, ptr %impl_.i, align 8, !noalias !37
  tail call void @llvm.experimental.noalias.scope.decl(metadata !40)
  %lock_.i.i = getelementptr inbounds i8, ptr %4, i64 80
  %call1.i.i.i.i.i = tail call noundef i32 @pthread_mutex_lock(ptr noundef nonnull %lock_.i.i) #21, !noalias !43
  %tobool.not.i.i.i.i = icmp eq i32 %call1.i.i.i.i.i, 0
  br i1 %tobool.not.i.i.i.i, label %_ZNSt10lock_guardISt5mutexEC2ERS0_.exit.i.i, label %if.then.i.i.i.i

if.then.i.i.i.i:                                  ; preds = %entry
  tail call void @_ZSt20__throw_system_errori(i32 noundef %call1.i.i.i.i.i) #24, !noalias !43
  unreachable

_ZNSt10lock_guardISt5mutexEC2ERS0_.exit.i.i:      ; preds = %entry
  %is_open_.i.i = getelementptr inbounds i8, ptr %4, i64 24
  %5 = load i8, ptr %is_open_.i.i, align 8, !noalias !43
  %6 = and i8 %5, 1
  %tobool.not.i.i = icmp eq i8 %6, 0
  br i1 %tobool.not.i.i, label %if.else.i.i, label %if.then.i.i

if.then.i.i:                                      ; preds = %_ZNSt10lock_guardISt5mutexEC2ERS0_.exit.i.i
  store i8 0, ptr %is_open_.i.i, align 8, !noalias !43
  %raw_.i.i = getelementptr inbounds i8, ptr %4, i64 8
  %7 = load ptr, ptr %raw_.i.i, align 8, !noalias !43
  %vtable.i.i = load ptr, ptr %7, align 8, !noalias !43
  %vbase.offset.ptr.i.i = getelementptr i8, ptr %vtable.i.i, i64 -24
  %vbase.offset.i.i = load i64, ptr %vbase.offset.ptr.i.i, align 8, !noalias !43
  %add.ptr.i.i = getelementptr inbounds i8, ptr %7, i64 %vbase.offset.i.i
  %vtable3.i.i = load ptr, ptr %add.ptr.i.i, align 8, !noalias !43
  %vfn.i.i = getelementptr inbounds i8, ptr %vtable3.i.i, i64 32
  %8 = load ptr, ptr %vfn.i.i, align 8, !noalias !43
  invoke void %8(ptr sret(%"class.arrow::Status") align 8 %agg.result, ptr noundef nonnull align 8 dereferenceable(28) %add.ptr.i.i)
          to label %_ZN5arrow2io22CompressedOutputStream5AbortEv.exit unwind label %lpad.i.i

lpad.i.i:                                         ; preds = %if.then.i.i
  %9 = landingpad { ptr, i32 }
          cleanup
  %call1.i.i.i1.i.i = tail call noundef i32 @pthread_mutex_unlock(ptr noundef nonnull %lock_.i.i) #21
  resume { ptr, i32 } %9

if.else.i.i:                                      ; preds = %_ZNSt10lock_guardISt5mutexEC2ERS0_.exit.i.i
  store ptr null, ptr %agg.result, align 8, !alias.scope !44
  br label %_ZN5arrow2io22CompressedOutputStream5AbortEv.exit

_ZN5arrow2io22CompressedOutputStream5AbortEv.exit: ; preds = %if.then.i.i, %if.else.i.i
  %call1.i.i.i2.i.i = tail call noundef i32 @pthread_mutex_unlock(ptr noundef nonnull %lock_.i.i) #21
  ret void
}